target datalayout = "e-m:e-p270:32:32-p271:32:32-p272:64:64-i64:64-i128:128-f80:128-n8:16:32:64-S128"
target triple = "x86_64-pc-linux-gnu"

%struct.GatherMergeState = type { %struct.PlanState, i8, i8, i8, i64, ptr, i32, ptr, ptr, i32, i32, ptr, ptr, ptr, ptr }
%struct.PlanState = type { i32, ptr, ptr, ptr, ptr, ptr, ptr, ptr, ptr, ptr, ptr, ptr, ptr, ptr, ptr, ptr, ptr, ptr, i8, ptr, ptr, ptr, ptr, ptr, i8, i8, i8, i8, i8, i8, i8, i8 }
%struct.EState = type { i32, i32, ptr, ptr, ptr, i32, ptr, ptr, ptr, ptr, ptr, ptr, ptr, ptr, ptr, ptr, i32, ptr, ptr, ptr, ptr, ptr, ptr, ptr, ptr, ptr, ptr, i64, i64, i32, i32, i8, ptr, ptr, ptr, ptr, ptr, i8, i32, i32, ptr, i32, ptr, ptr, ptr, ptr }
%struct.ParallelExecutorInfo = type { ptr, ptr, ptr, ptr, ptr, ptr, ptr, i64, i8, ptr, ptr }
%struct.TupleTableSlot = type { i32, i16, i16, ptr, ptr, ptr, ptr, ptr, %struct.ItemPointerData, i32 }
%struct.ItemPointerData = type { %struct.BlockIdData, i16 }
%struct.BlockIdData = type { i16, i16 }
%struct.GMReaderTupleBuffer = type { ptr, i32, i32, i8 }

@InterruptPending = external global i32, align 4

; Function Attrs: nounwind uwtable
define internal void @load_tuple_array(ptr noundef %0, i32 noundef %1) #0 {
  %3 = alloca ptr, align 8
  %4 = alloca i32, align 4
  %5 = alloca ptr, align 8
  %6 = alloca i32, align 4
  %7 = alloca i32, align 4
  %8 = alloca ptr, align 8
  store ptr %0, ptr %3, align 8
  store i32 %1, ptr %4, align 4
  call void @llvm.lifetime.start.p0(i64 8, ptr %5) #6
  call void @llvm.lifetime.start.p0(i64 4, ptr %6) #6
  %9 = load i32, ptr %4, align 4
  %10 = icmp eq i32 %9, 0
  br i1 %10, label %11, label %12

11:                                               ; preds = %2
  store i32 1, ptr %7, align 4
  br label %67

12:                                               ; preds = %2
  %13 = load ptr, ptr %3, align 8
  %14 = getelementptr inbounds nuw %struct.GatherMergeState, ptr %13, i32 0, i32 13
  %15 = load ptr, ptr %14, align 8
  %16 = load i32, ptr %4, align 4
  %17 = sub i32 %16, 1
  %18 = sext i32 %17 to i64
  %19 = getelementptr inbounds %struct.GMReaderTupleBuffer, ptr %15, i64 %18
  store ptr %19, ptr %5, align 8
  %20 = load ptr, ptr %5, align 8
  %21 = getelementptr inbounds nuw %struct.GMReaderTupleBuffer, ptr %20, i32 0, i32 1
  %22 = load i32, ptr %21, align 8
  %23 = load ptr, ptr %5, align 8
  %24 = getelementptr inbounds nuw %struct.GMReaderTupleBuffer, ptr %23, i32 0, i32 2
  %25 = load i32, ptr %24, align 4
  %26 = icmp eq i32 %22, %25
  br i1 %26, label %27, label %32

27:                                               ; preds = %12
  %28 = load ptr, ptr %5, align 8
  %29 = getelementptr inbounds nuw %struct.GMReaderTupleBuffer, ptr %28, i32 0, i32 2
  store i32 0, ptr %29, align 4
  %30 = load ptr, ptr %5, align 8
  %31 = getelementptr inbounds nuw %struct.GMReaderTupleBuffer, ptr %30, i32 0, i32 1
  store i32 0, ptr %31, align 8
  br label %32

32:                                               ; preds = %27, %12
  %33 = load ptr, ptr %5, align 8
  %34 = getelementptr inbounds nuw %struct.GMReaderTupleBuffer, ptr %33, i32 0, i32 1
  %35 = load i32, ptr %34, align 8
  store i32 %35, ptr %6, align 4
  br label %36

36:                                               ; preds = %63, %32
  %37 = load i32, ptr %6, align 4
  %38 = icmp slt i32 %37, 10
  br i1 %38, label %39, label %66

39:                                               ; preds = %36
  call void @llvm.lifetime.start.p0(i64 8, ptr %8) #6
  %40 = load ptr, ptr %3, align 8
  %41 = load i32, ptr %4, align 4
  %42 = load ptr, ptr %5, align 8
  %43 = getelementptr inbounds nuw %struct.GMReaderTupleBuffer, ptr %42, i32 0, i32 3
  %44 = call ptr @gm_readnext_tuple(ptr noundef %40, i32 noundef %41, i1 noundef zeroext true, ptr noundef %43)
  store ptr %44, ptr %8, align 8
  %45 = load ptr, ptr %8, align 8
  %46 = icmp ne ptr %45, null
  br i1 %46, label %48, label %47

47:                                               ; preds = %39
  store i32 2, ptr %7, align 4
  br label %60

48:                                               ; preds = %39
  %49 = load ptr, ptr %8, align 8
  %50 = load ptr, ptr %5, align 8
  %51 = getelementptr inbounds nuw %struct.GMReaderTupleBuffer, ptr %50, i32 0, i32 0
  %52 = load ptr, ptr %51, align 8
  %53 = load i32, ptr %6, align 4
  %54 = sext i32 %53 to i64
  %55 = getelementptr inbounds ptr, ptr %52, i64 %54
  store ptr %49, ptr %55, align 8
  %56 = load ptr, ptr %5, align 8
  %57 = getelementptr inbounds nuw %struct.GMReaderTupleBuffer, ptr %56, i32 0, i32 1
  %58 = load i32, ptr %57, align 8
  %59 = add i32 %58, 1
  store i32 %59, ptr %57, align 8
  store i32 0, ptr %7, align 4
  br label %60

60:                                               ; preds = %48, %47
  call void @llvm.lifetime.end.p0(i64 8, ptr %8) #6
  %61 = load i32, ptr %7, align 4
  switch i32 %61, label %70 [
    i32 0, label %62
    i32 2, label %66
  ]

62:                                               ; preds = %60
  br label %63

63:                                               ; preds = %62
  %64 = load i32, ptr %6, align 4
  %65 = add i32 %64, 1
  store i32 %65, ptr %6, align 4
  br label %36, !llvm.loop !14

66:                                               ; preds = %60, %36
  store i32 0, ptr %7, align 4
  br label %67

67:                                               ; preds = %66, %11
  call void @llvm.lifetime.end.p0(i64 4, ptr %6) #6
  call void @llvm.lifetime.end.p0(i64 8, ptr %5) #6
  %68 = load i32, ptr %7, align 4
  switch i32 %68, label %70 [
    i32 0, label %69
    i32 1, label %69
  ]

69:                                               ; preds = %67, %67
  ret void

70:                                               ; preds = %67, %60
  unreachable
}

; Function Attrs: nounwind uwtable
define internal ptr @gm_readnext_tuple(ptr noundef %0, i32 noundef %1, i1 noundef zeroext %2, ptr noundef %3) #0 {
  %5 = alloca ptr, align 8
  %6 = alloca i32, align 4
  %7 = alloca i8, align 1
  %8 = alloca ptr, align 8
  %9 = alloca ptr, align 8
  %10 = alloca ptr, align 8
  store ptr %0, ptr %5, align 8
  store i32 %1, ptr %6, align 4
  %11 = zext i1 %2 to i8
  store i8 %11, ptr %7, align 1
  store ptr %3, ptr %8, align 8
  call void @llvm.lifetime.start.p0(i64 8, ptr %9) #6
  call void @llvm.lifetime.start.p0(i64 8, ptr %10) #6
  br label %12

12:                                               ; preds = %4
  %13 = load volatile i32, ptr @InterruptPending, align 4
  %14 = icmp ne i32 %13, 0
  %15 = zext i1 %14 to i32
  %16 = sext i32 %15 to i64
  %17 = call i64 @llvm.expect.i64(i64 %16, i64 0)
  %18 = icmp ne i64 %17, 0
  br i1 %18, label %19, label %20

19:                                               ; preds = %12
  call void @ProcessInterrupts()
  br label %20

20:                                               ; preds = %19, %12
  br label %21

21:                                               ; preds = %20
  br label %22

22:                                               ; preds = %21
  %23 = load ptr, ptr %5, align 8
  %24 = getelementptr inbounds nuw %struct.GatherMergeState, ptr %23, i32 0, i32 12
  %25 = load ptr, ptr %24, align 8
  %26 = load i32, ptr %6, align 4
  %27 = sub i32 %26, 1
  %28 = sext i32 %27 to i64
  %29 = getelementptr inbounds ptr, ptr %25, i64 %28
  %30 = load ptr, ptr %29, align 8
  store ptr %30, ptr %9, align 8
  %31 = load ptr, ptr %9, align 8
  %32 = load i8, ptr %7, align 1, !range !4, !noundef !5
  %33 = trunc i8 %32 to i1
  %34 = load ptr, ptr %8, align 8
  %35 = call ptr @TupleQueueReaderNext(ptr noundef %31, i1 noundef zeroext %33, ptr noundef %34)
  store ptr %35, ptr %10, align 8
  %36 = load ptr, ptr %10, align 8
  %37 = icmp ne ptr %36, null
  br i1 %37, label %38, label %41

38:                                               ; preds = %22
  %39 = load ptr, ptr %10, align 8
  %40 = call ptr @heap_copy_minimal_tuple(ptr noundef %39)
  br label %42

41:                                               ; preds = %22
  br label %42

42:                                               ; preds = %41, %38
  %43 = phi ptr [ %40, %38 ], [ null, %41 ]
  call void @llvm.lifetime.end.p0(i64 8, ptr %10) #6
  call void @llvm.lifetime.end.p0(i64 8, ptr %9) #6
  ret ptr %43
}

; Function Attrs: inlinehint nounwind uwtable
define internal ptr @ExecProcNode(ptr noundef %0) #2 {
  %2 = alloca ptr, align 8
  store ptr %0, ptr %2, align 8
  %3 = load ptr, ptr %2, align 8
  %4 = getelementptr inbounds nuw %struct.PlanState, ptr %3, i32 0, i32 13
  %5 = load ptr, ptr %4, align 8
  %6 = icmp ne ptr %5, null
  br i1 %6, label %7, label %9

7:                                                ; preds = %1
  %8 = load ptr, ptr %2, align 8
  call void @ExecReScan(ptr noundef %8)
  br label %9

9:                                                ; preds = %7, %1
  %10 = load ptr, ptr %2, align 8
  %11 = getelementptr inbounds nuw %struct.PlanState, ptr %10, i32 0, i32 3
  %12 = load ptr, ptr %11, align 8
  %13 = load ptr, ptr %2, align 8
  %14 = call ptr %12(ptr noundef %13)
  ret ptr %14
}

; Function Attrs: nounwind uwtable
define internal zeroext i1 @gather_merge_readnext(ptr noundef %0, i32 noundef %1, i1 noundef zeroext %2) #0 {
  %4 = alloca i1, align 1
  %5 = alloca ptr, align 8
  %6 = alloca i32, align 4
  %7 = alloca i8, align 1
  %8 = alloca ptr, align 8
  %9 = alloca ptr, align 8
  %10 = alloca ptr, align 8
  %11 = alloca ptr, align 8
  %12 = alloca ptr, align 8
  %13 = alloca i32, align 4
  store ptr %0, ptr %5, align 8
  store i32 %1, ptr %6, align 4
  %14 = zext i1 %2 to i8
  store i8 %14, ptr %7, align 1
  call void @llvm.lifetime.start.p0(i64 8, ptr %8) #6
  call void @llvm.lifetime.start.p0(i64 8, ptr %9) #6
  %15 = load i32, ptr %6, align 4
  %16 = icmp eq i32 %15, 0
  br i1 %16, label %17, label %71

17:                                               ; preds = %3
  %18 = load ptr, ptr %5, align 8
  %19 = getelementptr inbounds nuw %struct.GatherMergeState, ptr %18, i32 0, i32 3
  %20 = load i8, ptr %19, align 2, !range !4, !noundef !5
  %21 = trunc i8 %20 to i1
  br i1 %21, label %22, label %70

22:                                               ; preds = %17
  call void @llvm.lifetime.start.p0(i64 8, ptr %10) #6
  %23 = load ptr, ptr %5, align 8
  %24 = getelementptr inbounds nuw %struct.PlanState, ptr %23, i32 0, i32 9
  %25 = load ptr, ptr %24, align 8
  store ptr %25, ptr %10, align 8
  call void @llvm.lifetime.start.p0(i64 8, ptr %11) #6
  call void @llvm.lifetime.start.p0(i64 8, ptr %12) #6
  %26 = load ptr, ptr %5, align 8
  %27 = getelementptr inbounds nuw %struct.GatherMergeState, ptr %26, i32 0, i32 0
  %28 = getelementptr inbounds nuw %struct.PlanState, ptr %27, i32 0, i32 2
  %29 = load ptr, ptr %28, align 8
  store ptr %29, ptr %12, align 8
  %30 = load ptr, ptr %5, align 8
  %31 = getelementptr inbounds nuw %struct.GatherMergeState, ptr %30, i32 0, i32 8
  %32 = load ptr, ptr %31, align 8
  %33 = icmp ne ptr %32, null
  br i1 %33, label %34, label %40

34:                                               ; preds = %22
  %35 = load ptr, ptr %5, align 8
  %36 = getelementptr inbounds nuw %struct.GatherMergeState, ptr %35, i32 0, i32 8
  %37 = load ptr, ptr %36, align 8
  %38 = getelementptr inbounds nuw %struct.ParallelExecutorInfo, ptr %37, i32 0, i32 6
  %39 = load ptr, ptr %38, align 8
  br label %41

40:                                               ; preds = %22
  br label %41

41:                                               ; preds = %40, %34
  %42 = phi ptr [ %39, %34 ], [ null, %40 ]
  %43 = load ptr, ptr %12, align 8
  %44 = getelementptr inbounds nuw %struct.EState, ptr %43, i32 0, i32 40
  store ptr %42, ptr %44, align 8
  %45 = load ptr, ptr %10, align 8
  %46 = call ptr @ExecProcNode(ptr noundef %45)
  store ptr %46, ptr %11, align 8
  %47 = load ptr, ptr %12, align 8
  %48 = getelementptr inbounds nuw %struct.EState, ptr %47, i32 0, i32 40
  store ptr null, ptr %48, align 8
  %49 = load ptr, ptr %11, align 8
  %50 = icmp eq ptr %49, null
  br i1 %50, label %64, label %51

51:                                               ; preds = %41
  %52 = load ptr, ptr %11, align 8
  %53 = getelementptr inbounds nuw %struct.TupleTableSlot, ptr %52, i32 0, i32 1
  %54 = load i16, ptr %53, align 4
  %55 = zext i16 %54 to i32
  %56 = and i32 %55, 2
  %57 = icmp ne i32 %56, 0
  br i1 %57, label %64, label %58

58:                                               ; preds = %51
  %59 = load ptr, ptr %11, align 8
  %60 = load ptr, ptr %5, align 8
  %61 = getelementptr inbounds nuw %struct.GatherMergeState, ptr %60, i32 0, i32 11
  %62 = load ptr, ptr %61, align 8
  %63 = getelementptr inbounds ptr, ptr %62, i64 0
  store ptr %59, ptr %63, align 8
  store i1 true, ptr %4, align 1
  store i32 1, ptr %13, align 4
  br label %67

64:                                               ; preds = %51, %41
  %65 = load ptr, ptr %5, align 8
  %66 = getelementptr inbounds nuw %struct.GatherMergeState, ptr %65, i32 0, i32 3
  store i8 0, ptr %66, align 2
  store i32 0, ptr %13, align 4
  br label %67

67:                                               ; preds = %64, %58
  call void @llvm.lifetime.end.p0(i64 8, ptr %12) #6
  call void @llvm.lifetime.end.p0(i64 8, ptr %11) #6
  call void @llvm.lifetime.end.p0(i64 8, ptr %10) #6
  %68 = load i32, ptr %13, align 4
  switch i32 %68, label %128 [
    i32 0, label %69
  ]

69:                                               ; preds = %67
  br label %70

70:                                               ; preds = %69, %17
  store i1 false, ptr %4, align 1
  store i32 1, ptr %13, align 4
  br label %128

71:                                               ; preds = %3
  %72 = load ptr, ptr %5, align 8
  %73 = getelementptr inbounds nuw %struct.GatherMergeState, ptr %72, i32 0, i32 13
  %74 = load ptr, ptr %73, align 8
  %75 = load i32, ptr %6, align 4
  %76 = sub i32 %75, 1
  %77 = sext i32 %76 to i64
  %78 = getelementptr inbounds %struct.GMReaderTupleBuffer, ptr %74, i64 %77
  store ptr %78, ptr %8, align 8
  %79 = load ptr, ptr %8, align 8
  %80 = getelementptr inbounds nuw %struct.GMReaderTupleBuffer, ptr %79, i32 0, i32 1
  %81 = load i32, ptr %80, align 8
  %82 = load ptr, ptr %8, align 8
  %83 = getelementptr inbounds nuw %struct.GMReaderTupleBuffer, ptr %82, i32 0, i32 2
  %84 = load i32, ptr %83, align 4
  %85 = icmp sgt i32 %81, %84
  br i1 %85, label %86, label %97

86:                                               ; preds = %71
  %87 = load ptr, ptr %8, align 8
  %88 = getelementptr inbounds nuw %struct.GMReaderTupleBuffer, ptr %87, i32 0, i32 0
  %89 = load ptr, ptr %88, align 8
  %90 = load ptr, ptr %8, align 8
  %91 = getelementptr inbounds nuw %struct.GMReaderTupleBuffer, ptr %90, i32 0, i32 2
  %92 = load i32, ptr %91, align 4
  %93 = add i32 %92, 1
  store i32 %93, ptr %91, align 4
  %94 = sext i32 %92 to i64
  %95 = getelementptr inbounds ptr, ptr %89, i64 %94
  %96 = load ptr, ptr %95, align 8
  store ptr %96, ptr %9, align 8
  br label %118

97:                                               ; preds = %71
  %98 = load ptr, ptr %8, align 8
  %99 = getelementptr inbounds nuw %struct.GMReaderTupleBuffer, ptr %98, i32 0, i32 3
  %100 = load i8, ptr %99, align 8, !range !4, !noundef !5
  %101 = trunc i8 %100 to i1
  br i1 %101, label %102, label %103

102:                                              ; preds = %97
  store i1 false, ptr %4, align 1
  store i32 1, ptr %13, align 4
  br label %128

103:                                              ; preds = %97
  %104 = load ptr, ptr %5, align 8
  %105 = load i32, ptr %6, align 4
  %106 = load i8, ptr %7, align 1, !range !4, !noundef !5
  %107 = trunc i8 %106 to i1
  %108 = load ptr, ptr %8, align 8
  %109 = getelementptr inbounds nuw %struct.GMReaderTupleBuffer, ptr %108, i32 0, i32 3
  %110 = call ptr @gm_readnext_tuple(ptr noundef %104, i32 noundef %105, i1 noundef zeroext %107, ptr noundef %109)
  store ptr %110, ptr %9, align 8
  %111 = load ptr, ptr %9, align 8
  %112 = icmp ne ptr %111, null
  br i1 %112, label %114, label %113

113:                                              ; preds = %103
  store i1 false, ptr %4, align 1
  store i32 1, ptr %13, align 4
  br label %128

114:                                              ; preds = %103
  %115 = load ptr, ptr %5, align 8
  %116 = load i32, ptr %6, align 4
  call void @load_tuple_array(ptr noundef %115, i32 noundef %116)
  br label %117

117:                                              ; preds = %114
  br label %118

118:                                              ; preds = %117, %86
  %119 = load ptr, ptr %9, align 8
  %120 = load ptr, ptr %5, align 8
  %121 = getelementptr inbounds nuw %struct.GatherMergeState, ptr %120, i32 0, i32 11
  %122 = load ptr, ptr %121, align 8
  %123 = load i32, ptr %6, align 4
  %124 = sext i32 %123 to i64
  %125 = getelementptr inbounds ptr, ptr %122, i64 %124
  %126 = load ptr, ptr %125, align 8
  %127 = call ptr @ExecStoreMinimalTuple(ptr noundef %119, ptr noundef %126, i1 noundef zeroext true)
  store i1 true, ptr %4, align 1
  store i32 1, ptr %13, align 4
  br label %128

128:                                              ; preds = %118, %113, %102, %70, %67
  call void @llvm.lifetime.end.p0(i64 8, ptr %9) #6
  call void @llvm.lifetime.end.p0(i64 8, ptr %8) #6
  %129 = load i1, ptr %4, align 1
  ret i1 %129
}