; Function Attrs: nounwind uwtable
define internal fastcc noundef zeroext i1 @gather_merge_readnext(ptr noundef captures(none) %0, i32 noundef %1, i1 noundef zeroext %2) unnamed_addr #0 {
  %4 = icmp eq i32 %1, 0
  br i1 %4, label %5, label %36

5:                                                ; preds = %3
  %6 = getelementptr inbounds nuw i8, ptr %0, i64 202
  %7 = load i8, ptr %6, align 2, !range !4, !noundef !5
  %8 = trunc nuw i8 %7 to i1
  br i1 %8, label %9, label %gm_readnext_tuple.exit.thread

9:                                                ; preds = %5
  %10 = getelementptr inbounds nuw i8, ptr %0, i64 72
  %11 = load ptr, ptr %10, align 8
  %12 = getelementptr inbounds nuw i8, ptr %0, i64 16
  %13 = load ptr, ptr %12, align 8
  %14 = getelementptr inbounds nuw i8, ptr %0, i64 240
  %15 = load ptr, ptr %14, align 8
  %.not39 = icmp eq ptr %15, null
  br i1 %.not39, label %19, label %16

16:                                               ; preds = %9
  %17 = getelementptr inbounds nuw i8, ptr %15, i64 48
  %18 = load ptr, ptr %17, align 8
  br label %19

19:                                               ; preds = %9, %16
  %20 = phi ptr [ %18, %16 ], [ null, %9 ]
  %21 = getelementptr inbounds nuw i8, ptr %13, i64 296
  store ptr %20, ptr %21, align 8
  %22 = getelementptr inbounds nuw i8, ptr %11, i64 104
  %23 = load ptr, ptr %22, align 8
  %.not.i = icmp eq ptr %23, null
  br i1 %.not.i, label %ExecProcNode.exit, label %24

24:                                               ; preds = %19
  tail call void @ExecReScan(ptr noundef nonnull %11) #4
  br label %ExecProcNode.exit

ExecProcNode.exit:                                ; preds = %19, %24
  %25 = getelementptr inbounds nuw i8, ptr %11, i64 24
  %26 = load ptr, ptr %25, align 8
  %27 = tail call ptr %26(ptr noundef nonnull %11) #4
  store ptr null, ptr %21, align 8
  %28 = icmp eq ptr %27, null
  br i1 %28, label %.critedge, label %29

29:                                               ; preds = %ExecProcNode.exit
  %30 = getelementptr inbounds nuw i8, ptr %27, i64 4
  %31 = load i16, ptr %30, align 4
  %32 = and i16 %31, 2
  %.not40 = icmp eq i16 %32, 0
  br i1 %.not40, label %33, label %.critedge

33:                                               ; preds = %29
  %34 = getelementptr inbounds nuw i8, ptr %0, i64 256
  %35 = load ptr, ptr %34, align 8
  store ptr %27, ptr %35, align 8
  br label %gm_readnext_tuple.exit.thread

.critedge:                                        ; preds = %29, %ExecProcNode.exit
  store i8 0, ptr %6, align 2
  br label %gm_readnext_tuple.exit.thread

36:                                               ; preds = %3
  %37 = getelementptr inbounds nuw i8, ptr %0, i64 272
  %38 = load ptr, ptr %37, align 8
  %39 = add i32 %1, -1
  %40 = sext i32 %39 to i64
  %41 = getelementptr inbounds %struct.GMReaderTupleBuffer, ptr %38, i64 %40
  %42 = getelementptr inbounds nuw i8, ptr %41, i64 8
  %43 = load i32, ptr %42, align 8
  %44 = getelementptr inbounds nuw i8, ptr %41, i64 12
  %45 = load i32, ptr %44, align 4
  %46 = icmp sgt i32 %43, %45
  br i1 %46, label %47, label %53

47:                                               ; preds = %36
  %48 = load ptr, ptr %41, align 8
  %49 = add nsw i32 %45, 1
  store i32 %49, ptr %44, align 4
  %50 = sext i32 %45 to i64
  %51 = getelementptr inbounds ptr, ptr %48, i64 %50
  %52 = load ptr, ptr %51, align 8
  br label %load_tuple_array.exit

53:                                               ; preds = %36
  %54 = getelementptr inbounds nuw i8, ptr %41, i64 16
  %55 = load i8, ptr %54, align 8, !range !4, !noundef !5
  %56 = trunc nuw i8 %55 to i1
  br i1 %56, label %gm_readnext_tuple.exit.thread, label %57

57:                                               ; preds = %53
  %58 = load volatile i32, ptr @InterruptPending, align 4
  %.not.i41 = icmp eq i32 %58, 0
  br i1 %.not.i41, label %60, label %59, !prof !9

59:                                               ; preds = %57
  tail call void @ProcessInterrupts() #4
  br label %60

60:                                               ; preds = %59, %57
  %61 = getelementptr inbounds nuw i8, ptr %0, i64 264
  %62 = load ptr, ptr %61, align 8
  %63 = getelementptr inbounds ptr, ptr %62, i64 %40
  %64 = load ptr, ptr %63, align 8
  %65 = tail call ptr @TupleQueueReaderNext(ptr noundef %64, i1 noundef zeroext %2, ptr noundef nonnull %54) #4
  %.not6.i = icmp eq ptr %65, null
  br i1 %.not6.i, label %gm_readnext_tuple.exit.thread, label %gm_readnext_tuple.exit

gm_readnext_tuple.exit:                           ; preds = %60
  %66 = tail call ptr @heap_copy_minimal_tuple(ptr noundef nonnull %65) #4
  %.not = icmp eq ptr %66, null
  br i1 %.not, label %gm_readnext_tuple.exit.thread, label %67

67:                                               ; preds = %gm_readnext_tuple.exit
  %68 = load ptr, ptr %37, align 8
  %69 = getelementptr inbounds %struct.GMReaderTupleBuffer, ptr %68, i64 %40
  %70 = getelementptr inbounds nuw i8, ptr %69, i64 8
  %71 = load i32, ptr %70, align 8
  %72 = getelementptr inbounds nuw i8, ptr %69, i64 12
  %73 = load i32, ptr %72, align 4
  %74 = icmp eq i32 %71, %73
  br i1 %74, label %.thread27.i, label %75

.thread27.i:                                      ; preds = %67
  store i32 0, ptr %72, align 4
  store i32 0, ptr %70, align 8
  br label %.lr.ph.i

75:                                               ; preds = %67
  %76 = icmp slt i32 %71, 10
  br i1 %76, label %.lr.ph.i, label %load_tuple_array.exit

.lr.ph.i:                                         ; preds = %75, %.thread27.i
  %77 = phi i32 [ 0, %.thread27.i ], [ %71, %75 ]
  %78 = getelementptr inbounds nuw i8, ptr %69, i64 16
  %79 = sext i32 %77 to i64
  br label %80

80:                                               ; preds = %89, %.lr.ph.i
  %indvars.iv.i = phi i64 [ %79, %.lr.ph.i ], [ %indvars.iv.next.i, %89 ]
  %81 = load volatile i32, ptr @InterruptPending, align 4
  %.not.i.i = icmp eq i32 %81, 0
  br i1 %.not.i.i, label %83, label %82, !prof !9

82:                                               ; preds = %80
  tail call void @ProcessInterrupts() #4
  br label %83

83:                                               ; preds = %82, %80
  %84 = load ptr, ptr %61, align 8
  %85 = getelementptr inbounds ptr, ptr %84, i64 %40
  %86 = load ptr, ptr %85, align 8
  %87 = tail call ptr @TupleQueueReaderNext(ptr noundef %86, i1 noundef zeroext true, ptr noundef nonnull %78) #4
  %.not6.i.i = icmp eq ptr %87, null
  br i1 %.not6.i.i, label %load_tuple_array.exit, label %gm_readnext_tuple.exit.i

gm_readnext_tuple.exit.i:                         ; preds = %83
  %88 = tail call ptr @heap_copy_minimal_tuple(ptr noundef nonnull %87) #4
  %.not.i42 = icmp eq ptr %88, null
  br i1 %.not.i42, label %load_tuple_array.exit, label %89

89:                                               ; preds = %gm_readnext_tuple.exit.i
  %90 = load ptr, ptr %69, align 8
  %91 = getelementptr inbounds ptr, ptr %90, i64 %indvars.iv.i
  store ptr %88, ptr %91, align 8
  %92 = load i32, ptr %70, align 8
  %93 = add i32 %92, 1
  store i32 %93, ptr %70, align 8
  %indvars.iv.next.i = add nsw i64 %indvars.iv.i, 1
  %exitcond.not.i = icmp eq i64 %indvars.iv.next.i, 10
  br i1 %exitcond.not.i, label %load_tuple_array.exit, label %80, !llvm.loop !11

load_tuple_array.exit:                            ; preds = %89, %gm_readnext_tuple.exit.i, %83, %75, %47
  %.033 = phi ptr [ %52, %47 ], [ %66, %75 ], [ %66, %83 ], [ %66, %gm_readnext_tuple.exit.i ], [ %66, %89 ]
  %94 = getelementptr inbounds nuw i8, ptr %0, i64 256
  %95 = load ptr, ptr %94, align 8
  %96 = sext i32 %1 to i64
  %97 = getelementptr inbounds ptr, ptr %95, i64 %96
  %98 = load ptr, ptr %97, align 8
  %99 = tail call ptr @ExecStoreMinimalTuple(ptr noundef %.033, ptr noundef %98, i1 noundef zeroext true) #4
  br label %gm_readnext_tuple.exit.thread

gm_readnext_tuple.exit.thread:                    ; preds = %60, %gm_readnext_tuple.exit, %53, %5, %.critedge, %33, %load_tuple_array.exit
  %.1 = phi i1 [ true, %33 ], [ true, %load_tuple_array.exit ], [ false, %.critedge ], [ false, %5 ], [ false, %53 ], [ false, %gm_readnext_tuple.exit ], [ false, %60 ]
  ret i1 %.1
}